target datalayout = "e-m:e-p270:32:32-p271:32:32-p272:64:64-i64:64-i128:128-f80:128-n8:16:32:64-S128"
target triple = "x86_64-pc-linux-gnu"

%struct.Abc_ZddMan_ = type { i32, i32, i32, i32, i32, i32, ptr, ptr, ptr, ptr, i32, i32, i64, ptr, ptr, ptr }
%struct.Abc_ZddObj_ = type { i32, i32, i32 }

; Function Attrs: inlinehint nounwind uwtable
define internal ptr @Abc_ZddNode(ptr noundef %0, i32 noundef %1) #2 {
  %3 = alloca ptr, align 8
  %4 = alloca i32, align 4
  store ptr %0, ptr %3, align 8, !tbaa !3
  store i32 %1, ptr %4, align 4, !tbaa !10
  %5 = load ptr, ptr %3, align 8, !tbaa !3
  %6 = getelementptr inbounds nuw %struct.Abc_ZddMan_, ptr %5, i32 0, i32 9
  %7 = load ptr, ptr %6, align 8, !tbaa !22
  %8 = load i32, ptr %4, align 4, !tbaa !10
  %9 = sext i32 %8 to i64
  %10 = getelementptr inbounds %struct.Abc_ZddObj_, ptr %7, i64 %9
  ret ptr %10
}

; Function Attrs: nounwind uwtable
define void @Abc_ZddUnmark_rec(ptr noundef %0, i32 noundef %1) #0 {
  %3 = alloca ptr, align 8
  %4 = alloca i32, align 4
  %5 = alloca ptr, align 8
  %6 = alloca i32, align 4
  store ptr %0, ptr %3, align 8, !tbaa !3
  store i32 %1, ptr %4, align 4, !tbaa !10
  call void @llvm.lifetime.start.p0(i64 8, ptr %5) #12
  %7 = load i32, ptr %4, align 4, !tbaa !10
  %8 = icmp slt i32 %7, 2
  br i1 %8, label %9, label %10

9:                                                ; preds = %2
  store i32 1, ptr %6, align 4
  br label %32

10:                                               ; preds = %2
  %11 = load ptr, ptr %3, align 8, !tbaa !3
  %12 = load i32, ptr %4, align 4, !tbaa !10
  %13 = call ptr @Abc_ZddNode(ptr noundef %11, i32 noundef %12)
  store ptr %13, ptr %5, align 8, !tbaa !46
  %14 = load ptr, ptr %5, align 8, !tbaa !46
  %15 = load i32, ptr %14, align 4
  %16 = lshr i32 %15, 31
  %17 = icmp ne i32 %16, 0
  br i1 %17, label %19, label %18

18:                                               ; preds = %10
  store i32 1, ptr %6, align 4
  br label %32

19:                                               ; preds = %10
  %20 = load ptr, ptr %5, align 8, !tbaa !46
  %21 = load i32, ptr %20, align 4
  %22 = and i32 %21, 2147483647
  %23 = or i32 %22, 0
  store i32 %23, ptr %20, align 4
  %24 = load ptr, ptr %3, align 8, !tbaa !3
  %25 = load ptr, ptr %5, align 8, !tbaa !46
  %26 = getelementptr inbounds nuw %struct.Abc_ZddObj_, ptr %25, i32 0, i32 2
  %27 = load i32, ptr %26, align 4, !tbaa !25
  call void @Abc_ZddUnmark_rec(ptr noundef %24, i32 noundef %27)
  %28 = load ptr, ptr %3, align 8, !tbaa !3
  %29 = load ptr, ptr %5, align 8, !tbaa !46
  %30 = getelementptr inbounds nuw %struct.Abc_ZddObj_, ptr %29, i32 0, i32 1
  %31 = load i32, ptr %30, align 4, !tbaa !23
  call void @Abc_ZddUnmark_rec(ptr noundef %28, i32 noundef %31)
  store i32 0, ptr %6, align 4
  br label %32

32:                                               ; preds = %19, %18, %9
  call void @llvm.lifetime.end.p0(i64 8, ptr %5) #12
  %33 = load i32, ptr %6, align 4
  switch i32 %33, label %35 [
    i32 0, label %34
    i32 1, label %34
  ]

34:                                               ; preds = %32, %32
  ret void

35:                                               ; preds = %32
  unreachable
}