; Function Attrs: nofree nosync nounwind memory(readwrite, inaccessiblemem: none) uwtable
define void @Abc_ZddUnmark_rec(ptr noundef readonly captures(none) %0, i32 noundef %1) local_unnamed_addr #10 {
  %3 = getelementptr i8, ptr %0, i64 48
  %4 = icmp slt i32 %1, 2
  br i1 %4, label %._crit_edge, label %.lr.ph

.lr.ph:                                           ; preds = %2, %tailrecurse
  %.tr89 = phi i32 [ %12, %tailrecurse ], [ %1, %2 ]
  %.val = load ptr, ptr %3, align 8, !tbaa !18
  %5 = zext nneg i32 %.tr89 to i64
  %6 = getelementptr inbounds nuw %struct.Abc_ZddObj_, ptr %.val, i64 %5
  %7 = load i32, ptr %6, align 4
  %.not = icmp sgt i32 %7, -1
  br i1 %.not, label %._crit_edge, label %tailrecurse

tailrecurse:                                      ; preds = %.lr.ph
  %8 = and i32 %7, 2147483647
  store i32 %8, ptr %6, align 4
  %9 = getelementptr inbounds nuw i8, ptr %6, i64 8
  %10 = load i32, ptr %9, align 4, !tbaa !21
  tail call void @Abc_ZddUnmark_rec(ptr noundef nonnull %0, i32 noundef %10)
  %11 = getelementptr inbounds nuw i8, ptr %6, i64 4
  %12 = load i32, ptr %11, align 4, !tbaa !19
  %13 = icmp slt i32 %12, 2
  br i1 %13, label %._crit_edge, label %.lr.ph

._crit_edge:                                      ; preds = %tailrecurse, %.lr.ph, %2
  ret void
}